target datalayout = "e-m:e-p270:32:32-p271:32:32-p272:64:64-i64:64-i128:128-f80:128-n8:16:32:64-S128"
target triple = "x86_64-pc-linux-gnu"

%"class.llvm::InstructionPrecedenceTracking" = type { ptr, %"class.llvm::DenseMap" }
%"class.llvm::DenseMap" = type <{ ptr, i32, i32, i32, [4 x i8] }>
%"struct.std::pair" = type { ptr, ptr }
%"struct.llvm::detail::DenseMapPair" = type { %"struct.std::pair" }

; Function Attrs: mustprogress nounwind uwtable
define linkonce_odr hidden void @_ZN4llvm8DenseMapIPKNS_10BasicBlockEPKNS_11InstructionENS_12DenseMapInfoIS3_vEENS_6detail12DenseMapPairIS3_S6_EEE16setNumTombstonesEj(ptr noundef nonnull align 8 dereferenceable(20) %0, i32 noundef %1) #1 comdat align 2 {
  %3 = alloca ptr, align 8
  %4 = alloca i32, align 4
  store ptr %0, ptr %3, align 8
  store i32 %1, ptr %4, align 4
  %5 = load ptr, ptr %3, align 8
  %6 = load i32, ptr %4, align 4
  %7 = getelementptr inbounds nuw %"class.llvm::DenseMap", ptr %5, i32 0, i32 2
  store i32 %6, ptr %7, align 4
  ret void
}

; Function Attrs: mustprogress nounwind uwtable
define linkonce_odr hidden void @_ZN4llvm8DenseMapIPKNS_10BasicBlockEPKNS_11InstructionENS_12DenseMapInfoIS3_vEENS_6detail12DenseMapPairIS3_S6_EEE13setNumEntriesEj(ptr noundef nonnull align 8 dereferenceable(20) %0, i32 noundef %1) #1 comdat align 2 {
  %3 = alloca ptr, align 8
  %4 = alloca i32, align 4
  store ptr %0, ptr %3, align 8
  store i32 %1, ptr %4, align 4
  %5 = load ptr, ptr %3, align 8
  %6 = load i32, ptr %4, align 4
  %7 = getelementptr inbounds nuw %"class.llvm::DenseMap", ptr %5, i32 0, i32 1
  store i32 %6, ptr %7, align 8
  ret void
}

; Function Attrs: mustprogress nounwind uwtable
define linkonce_odr hidden noundef ptr @_ZNK4llvm8DenseMapIPKNS_10BasicBlockEPKNS_11InstructionENS_12DenseMapInfoIS3_vEENS_6detail12DenseMapPairIS3_S6_EEE10getBucketsEv(ptr noundef nonnull align 8 dereferenceable(20) %0) #1 comdat align 2 {
  %2 = alloca ptr, align 8
  store ptr %0, ptr %2, align 8
  %3 = load ptr, ptr %2, align 8
  %4 = getelementptr inbounds nuw %"class.llvm::DenseMap", ptr %3, i32 0, i32 0
  %5 = load ptr, ptr %4, align 8
  ret ptr %5
}

; Function Attrs: mustprogress nounwind uwtable
define linkonce_odr hidden noundef ptr @_ZN4llvm12DenseMapInfoIPKNS_10BasicBlockEvE11getEmptyKeyEv() #1 comdat align 2 {
  %1 = alloca i64, align 8
  store i64 -1, ptr %1, align 8
  %2 = load i64, ptr %1, align 8
  %3 = shl i64 %2, 12
  store i64 %3, ptr %1, align 8
  %4 = load i64, ptr %1, align 8
  %5 = inttoptr i64 %4 to ptr
  ret ptr %5
}

; Function Attrs: mustprogress nounwind uwtable
define linkonce_odr hidden noundef i32 @_ZNK4llvm8DenseMapIPKNS_10BasicBlockEPKNS_11InstructionENS_12DenseMapInfoIS3_vEENS_6detail12DenseMapPairIS3_S6_EEE13getNumBucketsEv(ptr noundef nonnull align 8 dereferenceable(20) %0) #1 comdat align 2 {
  %2 = alloca ptr, align 8
  store ptr %0, ptr %2, align 8
  %3 = load ptr, ptr %2, align 8
  %4 = getelementptr inbounds nuw %"class.llvm::DenseMap", ptr %3, i32 0, i32 3
  %5 = load i32, ptr %4, align 8
  ret i32 %5
}

; Function Attrs: mustprogress nounwind uwtable
define linkonce_odr hidden noundef i32 @_ZNK4llvm8DenseMapIPKNS_10BasicBlockEPKNS_11InstructionENS_12DenseMapInfoIS3_vEENS_6detail12DenseMapPairIS3_S6_EEE16getNumTombstonesEv(ptr noundef nonnull align 8 dereferenceable(20) %0) #1 comdat align 2 {
  %2 = alloca ptr, align 8
  store ptr %0, ptr %2, align 8
  %3 = load ptr, ptr %2, align 8
  %4 = getelementptr inbounds nuw %"class.llvm::DenseMap", ptr %3, i32 0, i32 2
  %5 = load i32, ptr %4, align 4
  ret i32 %5
}

; Function Attrs: mustprogress nounwind uwtable
define linkonce_odr hidden noundef i32 @_ZNK4llvm8DenseMapIPKNS_10BasicBlockEPKNS_11InstructionENS_12DenseMapInfoIS3_vEENS_6detail12DenseMapPairIS3_S6_EEE13getNumEntriesEv(ptr noundef nonnull align 8 dereferenceable(20) %0) #1 comdat align 2 {
  %2 = alloca ptr, align 8
  store ptr %0, ptr %2, align 8
  %3 = load ptr, ptr %2, align 8
  %4 = getelementptr inbounds nuw %"class.llvm::DenseMap", ptr %3, i32 0, i32 1
  %5 = load i32, ptr %4, align 8
  ret i32 %5
}

; Function Attrs: mustprogress nounwind uwtable
define linkonce_odr hidden void @_ZN4llvm12DenseMapBaseINS_8DenseMapIPKNS_10BasicBlockEPKNS_11InstructionENS_12DenseMapInfoIS4_vEENS_6detail12DenseMapPairIS4_S7_EEEES4_S7_S9_SC_E16setNumTombstonesEj(ptr noundef nonnull align 1 dereferenceable(1) %0, i32 noundef %1) #1 comdat align 2 {
  %3 = alloca ptr, align 8
  %4 = alloca i32, align 4
  store ptr %0, ptr %3, align 8
  store i32 %1, ptr %4, align 4
  %5 = load ptr, ptr %3, align 8
  %6 = load i32, ptr %4, align 4
  call void @_ZN4llvm8DenseMapIPKNS_10BasicBlockEPKNS_11InstructionENS_12DenseMapInfoIS3_vEENS_6detail12DenseMapPairIS3_S6_EEE16setNumTombstonesEj(ptr noundef nonnull align 8 dereferenceable(20) %5, i32 noundef %6)
  ret void
}

; Function Attrs: mustprogress nounwind uwtable
define linkonce_odr hidden void @_ZN4llvm12DenseMapBaseINS_8DenseMapIPKNS_10BasicBlockEPKNS_11InstructionENS_12DenseMapInfoIS4_vEENS_6detail12DenseMapPairIS4_S7_EEEES4_S7_S9_SC_E13setNumEntriesEj(ptr noundef nonnull align 1 dereferenceable(1) %0, i32 noundef %1) #1 comdat align 2 {
  %3 = alloca ptr, align 8
  %4 = alloca i32, align 4
  store ptr %0, ptr %3, align 8
  store i32 %1, ptr %4, align 4
  %5 = load ptr, ptr %3, align 8
  %6 = load i32, ptr %4, align 4
  call void @_ZN4llvm8DenseMapIPKNS_10BasicBlockEPKNS_11InstructionENS_12DenseMapInfoIS3_vEENS_6detail12DenseMapPairIS3_S6_EEE13setNumEntriesEj(ptr noundef nonnull align 8 dereferenceable(20) %5, i32 noundef %6)
  ret void
}

; Function Attrs: mustprogress nounwind uwtable
define linkonce_odr hidden noundef nonnull align 8 dereferenceable(8) ptr @_ZN4llvm6detail12DenseMapPairIPKNS_10BasicBlockEPKNS_11InstructionEE8getFirstEv(ptr noundef nonnull align 8 dereferenceable(16) %0) #1 comdat align 2 {
  %2 = alloca ptr, align 8
  store ptr %0, ptr %2, align 8
  %3 = load ptr, ptr %2, align 8
  %4 = getelementptr inbounds nuw %"struct.std::pair", ptr %3, i32 0, i32 0
  ret ptr %4
}

; Function Attrs: mustprogress nounwind uwtable
define linkonce_odr hidden noundef ptr @_ZN4llvm12DenseMapBaseINS_8DenseMapIPKNS_10BasicBlockEPKNS_11InstructionENS_12DenseMapInfoIS4_vEENS_6detail12DenseMapPairIS4_S7_EEEES4_S7_S9_SC_E13getBucketsEndEv(ptr noundef nonnull align 1 dereferenceable(1) %0) #1 comdat align 2 {
  %2 = alloca ptr, align 8
  store ptr %0, ptr %2, align 8
  %3 = load ptr, ptr %2, align 8
  %4 = call noundef ptr @_ZN4llvm12DenseMapBaseINS_8DenseMapIPKNS_10BasicBlockEPKNS_11InstructionENS_12DenseMapInfoIS4_vEENS_6detail12DenseMapPairIS4_S7_EEEES4_S7_S9_SC_E10getBucketsEv(ptr noundef nonnull align 1 dereferenceable(1) %3)
  %5 = call noundef i32 @_ZNK4llvm12DenseMapBaseINS_8DenseMapIPKNS_10BasicBlockEPKNS_11InstructionENS_12DenseMapInfoIS4_vEENS_6detail12DenseMapPairIS4_S7_EEEES4_S7_S9_SC_E13getNumBucketsEv(ptr noundef nonnull align 1 dereferenceable(1) %3)
  %6 = zext i32 %5 to i64
  %7 = getelementptr inbounds %"struct.llvm::detail::DenseMapPair", ptr %4, i64 %6
  ret ptr %7
}

; Function Attrs: mustprogress nounwind uwtable
define linkonce_odr hidden noundef ptr @_ZN4llvm12DenseMapBaseINS_8DenseMapIPKNS_10BasicBlockEPKNS_11InstructionENS_12DenseMapInfoIS4_vEENS_6detail12DenseMapPairIS4_S7_EEEES4_S7_S9_SC_E10getBucketsEv(ptr noundef nonnull align 1 dereferenceable(1) %0) #1 comdat align 2 {
  %2 = alloca ptr, align 8
  store ptr %0, ptr %2, align 8
  %3 = load ptr, ptr %2, align 8
  %4 = call noundef ptr @_ZNK4llvm8DenseMapIPKNS_10BasicBlockEPKNS_11InstructionENS_12DenseMapInfoIS3_vEENS_6detail12DenseMapPairIS3_S6_EEE10getBucketsEv(ptr noundef nonnull align 8 dereferenceable(20) %3)
  ret ptr %4
}

; Function Attrs: mustprogress nounwind uwtable
define linkonce_odr hidden noundef ptr @_ZN4llvm12DenseMapBaseINS_8DenseMapIPKNS_10BasicBlockEPKNS_11InstructionENS_12DenseMapInfoIS4_vEENS_6detail12DenseMapPairIS4_S7_EEEES4_S7_S9_SC_E11getEmptyKeyEv() #1 comdat align 2 {
  %1 = call noundef ptr @_ZN4llvm12DenseMapInfoIPKNS_10BasicBlockEvE11getEmptyKeyEv()
  ret ptr %1
}

; Function Attrs: mustprogress nounwind uwtable
define linkonce_odr hidden void @_ZN4llvm12DenseMapBaseINS_8DenseMapIPKNS_10BasicBlockEPKNS_11InstructionENS_12DenseMapInfoIS4_vEENS_6detail12DenseMapPairIS4_S7_EEEES4_S7_S9_SC_E16shrink_and_clearEv(ptr noundef nonnull align 1 dereferenceable(1) %0) #1 comdat align 2 {
  %2 = alloca ptr, align 8
  store ptr %0, ptr %2, align 8
  %3 = load ptr, ptr %2, align 8
  call void @_ZN4llvm8DenseMapIPKNS_10BasicBlockEPKNS_11InstructionENS_12DenseMapInfoIS3_vEENS_6detail12DenseMapPairIS3_S6_EEE16shrink_and_clearEv(ptr noundef nonnull align 8 dereferenceable(20) %3)
  ret void
}

; Function Attrs: mustprogress nounwind uwtable
define linkonce_odr hidden noundef i32 @_ZNK4llvm12DenseMapBaseINS_8DenseMapIPKNS_10BasicBlockEPKNS_11InstructionENS_12DenseMapInfoIS4_vEENS_6detail12DenseMapPairIS4_S7_EEEES4_S7_S9_SC_E13getNumBucketsEv(ptr noundef nonnull align 1 dereferenceable(1) %0) #1 comdat align 2 {
  %2 = alloca ptr, align 8
  store ptr %0, ptr %2, align 8
  %3 = load ptr, ptr %2, align 8
  %4 = call noundef i32 @_ZNK4llvm8DenseMapIPKNS_10BasicBlockEPKNS_11InstructionENS_12DenseMapInfoIS3_vEENS_6detail12DenseMapPairIS3_S6_EEE13getNumBucketsEv(ptr noundef nonnull align 8 dereferenceable(20) %3)
  ret i32 %4
}

; Function Attrs: mustprogress nounwind uwtable
define linkonce_odr hidden noundef i32 @_ZNK4llvm12DenseMapBaseINS_8DenseMapIPKNS_10BasicBlockEPKNS_11InstructionENS_12DenseMapInfoIS4_vEENS_6detail12DenseMapPairIS4_S7_EEEES4_S7_S9_SC_E16getNumTombstonesEv(ptr noundef nonnull align 1 dereferenceable(1) %0) #1 comdat align 2 {
  %2 = alloca ptr, align 8
  store ptr %0, ptr %2, align 8
  %3 = load ptr, ptr %2, align 8
  %4 = call noundef i32 @_ZNK4llvm8DenseMapIPKNS_10BasicBlockEPKNS_11InstructionENS_12DenseMapInfoIS3_vEENS_6detail12DenseMapPairIS3_S6_EEE16getNumTombstonesEv(ptr noundef nonnull align 8 dereferenceable(20) %3)
  ret i32 %4
}

; Function Attrs: mustprogress nounwind uwtable
define linkonce_odr hidden noundef i32 @_ZNK4llvm12DenseMapBaseINS_8DenseMapIPKNS_10BasicBlockEPKNS_11InstructionENS_12DenseMapInfoIS4_vEENS_6detail12DenseMapPairIS4_S7_EEEES4_S7_S9_SC_E13getNumEntriesEv(ptr noundef nonnull align 1 dereferenceable(1) %0) #1 comdat align 2 {
  %2 = alloca ptr, align 8
  store ptr %0, ptr %2, align 8
  %3 = load ptr, ptr %2, align 8
  %4 = call noundef i32 @_ZNK4llvm8DenseMapIPKNS_10BasicBlockEPKNS_11InstructionENS_12DenseMapInfoIS3_vEENS_6detail12DenseMapPairIS3_S6_EEE13getNumEntriesEv(ptr noundef nonnull align 8 dereferenceable(20) %3)
  ret i32 %4
}

; Function Attrs: mustprogress nounwind uwtable
define linkonce_odr hidden void @_ZN4llvm14DebugEpochBase14incrementEpochEv(ptr noundef nonnull align 1 dereferenceable(1) %0) #1 comdat align 2 {
  %2 = alloca ptr, align 8
  store ptr %0, ptr %2, align 8
  ret void
}

; Function Attrs: mustprogress nounwind uwtable
define linkonce_odr hidden void @_ZN4llvm12DenseMapBaseINS_8DenseMapIPKNS_10BasicBlockEPKNS_11InstructionENS_12DenseMapInfoIS4_vEENS_6detail12DenseMapPairIS4_S7_EEEES4_S7_S9_SC_E5clearEv(ptr noundef nonnull align 1 dereferenceable(1) %0) #1 comdat align 2 {
  %2 = alloca ptr, align 8
  %3 = alloca ptr, align 8
  %4 = alloca ptr, align 8
  %5 = alloca ptr, align 8
  store ptr %0, ptr %2, align 8
  %6 = load ptr, ptr %2, align 8
  call void @_ZN4llvm14DebugEpochBase14incrementEpochEv(ptr noundef nonnull align 1 dereferenceable(1) %6)
  %7 = call noundef i32 @_ZNK4llvm12DenseMapBaseINS_8DenseMapIPKNS_10BasicBlockEPKNS_11InstructionENS_12DenseMapInfoIS4_vEENS_6detail12DenseMapPairIS4_S7_EEEES4_S7_S9_SC_E13getNumEntriesEv(ptr noundef nonnull align 1 dereferenceable(1) %6)
  %8 = icmp eq i32 %7, 0
  br i1 %8, label %9, label %13

9:                                                ; preds = %1
  %10 = call noundef i32 @_ZNK4llvm12DenseMapBaseINS_8DenseMapIPKNS_10BasicBlockEPKNS_11InstructionENS_12DenseMapInfoIS4_vEENS_6detail12DenseMapPairIS4_S7_EEEES4_S7_S9_SC_E16getNumTombstonesEv(ptr noundef nonnull align 1 dereferenceable(1) %6)
  %11 = icmp eq i32 %10, 0
  br i1 %11, label %12, label %13

12:                                               ; preds = %9
  br label %38

13:                                               ; preds = %9, %1
  %14 = call noundef i32 @_ZNK4llvm12DenseMapBaseINS_8DenseMapIPKNS_10BasicBlockEPKNS_11InstructionENS_12DenseMapInfoIS4_vEENS_6detail12DenseMapPairIS4_S7_EEEES4_S7_S9_SC_E13getNumEntriesEv(ptr noundef nonnull align 1 dereferenceable(1) %6)
  %15 = mul i32 %14, 4
  %16 = call noundef i32 @_ZNK4llvm12DenseMapBaseINS_8DenseMapIPKNS_10BasicBlockEPKNS_11InstructionENS_12DenseMapInfoIS4_vEENS_6detail12DenseMapPairIS4_S7_EEEES4_S7_S9_SC_E13getNumBucketsEv(ptr noundef nonnull align 1 dereferenceable(1) %6)
  %17 = icmp ult i32 %15, %16
  br i1 %17, label %18, label %22

18:                                               ; preds = %13
  %19 = call noundef i32 @_ZNK4llvm12DenseMapBaseINS_8DenseMapIPKNS_10BasicBlockEPKNS_11InstructionENS_12DenseMapInfoIS4_vEENS_6detail12DenseMapPairIS4_S7_EEEES4_S7_S9_SC_E13getNumBucketsEv(ptr noundef nonnull align 1 dereferenceable(1) %6)
  %20 = icmp ugt i32 %19, 64
  br i1 %20, label %21, label %22

21:                                               ; preds = %18
  call void @_ZN4llvm12DenseMapBaseINS_8DenseMapIPKNS_10BasicBlockEPKNS_11InstructionENS_12DenseMapInfoIS4_vEENS_6detail12DenseMapPairIS4_S7_EEEES4_S7_S9_SC_E16shrink_and_clearEv(ptr noundef nonnull align 1 dereferenceable(1) %6)
  br label %38

22:                                               ; preds = %18, %13
  %23 = call noundef ptr @_ZN4llvm12DenseMapBaseINS_8DenseMapIPKNS_10BasicBlockEPKNS_11InstructionENS_12DenseMapInfoIS4_vEENS_6detail12DenseMapPairIS4_S7_EEEES4_S7_S9_SC_E11getEmptyKeyEv()
  store ptr %23, ptr %3, align 8
  %24 = call noundef ptr @_ZN4llvm12DenseMapBaseINS_8DenseMapIPKNS_10BasicBlockEPKNS_11InstructionENS_12DenseMapInfoIS4_vEENS_6detail12DenseMapPairIS4_S7_EEEES4_S7_S9_SC_E10getBucketsEv(ptr noundef nonnull align 1 dereferenceable(1) %6)
  store ptr %24, ptr %4, align 8
  %25 = call noundef ptr @_ZN4llvm12DenseMapBaseINS_8DenseMapIPKNS_10BasicBlockEPKNS_11InstructionENS_12DenseMapInfoIS4_vEENS_6detail12DenseMapPairIS4_S7_EEEES4_S7_S9_SC_E13getBucketsEndEv(ptr noundef nonnull align 1 dereferenceable(1) %6)
  store ptr %25, ptr %5, align 8
  br label %26

26:                                               ; preds = %34, %22
  %27 = load ptr, ptr %4, align 8
  %28 = load ptr, ptr %5, align 8
  %29 = icmp ne ptr %27, %28
  br i1 %29, label %30, label %37

30:                                               ; preds = %26
  %31 = load ptr, ptr %3, align 8
  %32 = load ptr, ptr %4, align 8
  %33 = call noundef nonnull align 8 dereferenceable(8) ptr @_ZN4llvm6detail12DenseMapPairIPKNS_10BasicBlockEPKNS_11InstructionEE8getFirstEv(ptr noundef nonnull align 8 dereferenceable(16) %32)
  store ptr %31, ptr %33, align 8
  br label %34

34:                                               ; preds = %30
  %35 = load ptr, ptr %4, align 8
  %36 = getelementptr inbounds %"struct.llvm::detail::DenseMapPair", ptr %35, i32 1
  store ptr %36, ptr %4, align 8
  br label %26, !llvm.loop !4

37:                                               ; preds = %26
  call void @_ZN4llvm12DenseMapBaseINS_8DenseMapIPKNS_10BasicBlockEPKNS_11InstructionENS_12DenseMapInfoIS4_vEENS_6detail12DenseMapPairIS4_S7_EEEES4_S7_S9_SC_E13setNumEntriesEj(ptr noundef nonnull align 1 dereferenceable(1) %6, i32 noundef 0)
  call void @_ZN4llvm12DenseMapBaseINS_8DenseMapIPKNS_10BasicBlockEPKNS_11InstructionENS_12DenseMapInfoIS4_vEENS_6detail12DenseMapPairIS4_S7_EEEES4_S7_S9_SC_E16setNumTombstonesEj(ptr noundef nonnull align 1 dereferenceable(1) %6, i32 noundef 0)
  br label %38

38:                                               ; preds = %37, %21, %12
  ret void
}

; Function Attrs: mustprogress nounwind uwtable
define dso_local void @_ZN4llvm29InstructionPrecedenceTracking5clearEv(ptr noundef nonnull align 8 dereferenceable(32) %0) #1 align 2 {
  %2 = alloca ptr, align 8
  store ptr %0, ptr %2, align 8
  %3 = load ptr, ptr %2, align 8
  %4 = getelementptr inbounds nuw %"class.llvm::InstructionPrecedenceTracking", ptr %3, i32 0, i32 1
  call void @_ZN4llvm12DenseMapBaseINS_8DenseMapIPKNS_10BasicBlockEPKNS_11InstructionENS_12DenseMapInfoIS4_vEENS_6detail12DenseMapPairIS4_S7_EEEES4_S7_S9_SC_E5clearEv(ptr noundef nonnull align 1 dereferenceable(1) %4)
  ret void
}